; Function Attrs: mustprogress nounwind uwtable
define hidden noundef zeroext i16 @_ZNK7oopDesc18char_field_acquireEi(ptr noundef nonnull align 8 dereferenceable(16) %0, i32 noundef %1) local_unnamed_addr #0 align 2 {
  %3 = ptrtoint ptr %0 to i64
  %4 = sext i32 %1 to i64
  %5 = add nsw i64 %4, %3
  %6 = inttoptr i64 %5 to ptr
  %7 = load volatile i16, ptr %6, align 2
  tail call void asm sideeffect "", "~{memory},~{dirflag},~{fpsr},~{flags}"() #11, !srcloc !6
  ret i16 %7
}